target datalayout = "e-m:e-p270:32:32-p271:32:32-p272:64:64-i64:64-i128:128-f80:128-n8:16:32:64-S128"
target triple = "x86_64-pc-linux-gnu"

@.str.40 = private unnamed_addr constant [36 x i8] c"Can't write sCAL (buffer too small)\00", align 1

; Function Attrs: nounwind uwtable
define void @png_write_sCAL_s(ptr noalias noundef %0, i32 noundef %1, ptr noundef %2, ptr noundef %3) #0 {
  %5 = alloca ptr, align 8
  %6 = alloca i32, align 4
  %7 = alloca ptr, align 8
  %8 = alloca ptr, align 8
  %9 = alloca [64 x i8], align 16
  %10 = alloca i64, align 8
  %11 = alloca i64, align 8
  %12 = alloca i64, align 8
  %13 = alloca i32, align 4
  store ptr %0, ptr %5, align 8, !tbaa !11
  store i32 %1, ptr %6, align 4, !tbaa !8
  store ptr %2, ptr %7, align 8, !tbaa !3
  store ptr %3, ptr %8, align 8, !tbaa !3
  call void @llvm.lifetime.start.p0(i64 64, ptr %9) #7
  call void @llvm.lifetime.start.p0(i64 8, ptr %10) #7
  call void @llvm.lifetime.start.p0(i64 8, ptr %11) #7
  call void @llvm.lifetime.start.p0(i64 8, ptr %12) #7
  %14 = load ptr, ptr %7, align 8, !tbaa !3
  %15 = call i64 @strlen(ptr noundef %14) #9
  store i64 %15, ptr %10, align 8, !tbaa !30
  %16 = load ptr, ptr %8, align 8, !tbaa !3
  %17 = call i64 @strlen(ptr noundef %16) #9
  store i64 %17, ptr %11, align 8, !tbaa !30
  %18 = load i64, ptr %10, align 8, !tbaa !30
  %19 = load i64, ptr %11, align 8, !tbaa !30
  %20 = add i64 %18, %19
  %21 = add i64 %20, 2
  store i64 %21, ptr %12, align 8, !tbaa !30
  %22 = load i64, ptr %12, align 8, !tbaa !30
  %23 = icmp ugt i64 %22, 64
  br i1 %23, label %24, label %26

24:                                               ; preds = %4
  %25 = load ptr, ptr %5, align 8, !tbaa !11
  call void @png_warning(ptr noundef %25, ptr noundef @.str.40)
  store i32 1, ptr %13, align 4
  br label %44

26:                                               ; preds = %4
  %27 = load i32, ptr %6, align 4, !tbaa !8
  %28 = trunc i32 %27 to i8
  %29 = getelementptr inbounds [64 x i8], ptr %9, i64 0, i64 0
  store i8 %28, ptr %29, align 16, !tbaa !10
  %30 = getelementptr inbounds [64 x i8], ptr %9, i64 0, i64 0
  %31 = getelementptr inbounds i8, ptr %30, i64 1
  %32 = load ptr, ptr %7, align 8, !tbaa !3
  %33 = load i64, ptr %10, align 8, !tbaa !30
  %34 = add i64 %33, 1
  call void @llvm.memcpy.p0.p0.i64(ptr align 1 %31, ptr align 1 %32, i64 %34, i1 false)
  %35 = getelementptr inbounds [64 x i8], ptr %9, i64 0, i64 0
  %36 = load i64, ptr %10, align 8, !tbaa !30
  %37 = getelementptr inbounds nuw i8, ptr %35, i64 %36
  %38 = getelementptr inbounds i8, ptr %37, i64 2
  %39 = load ptr, ptr %8, align 8, !tbaa !3
  %40 = load i64, ptr %11, align 8, !tbaa !30
  call void @llvm.memcpy.p0.p0.i64(ptr align 1 %38, ptr align 1 %39, i64 %40, i1 false)
  %41 = load ptr, ptr %5, align 8, !tbaa !11
  %42 = getelementptr inbounds [64 x i8], ptr %9, i64 0, i64 0
  %43 = load i64, ptr %12, align 8, !tbaa !30
  call void @png_write_complete_chunk(ptr noundef %41, i32 noundef 1933787468, ptr noundef %42, i64 noundef %43)
  store i32 0, ptr %13, align 4
  br label %44

44:                                               ; preds = %26, %24
  call void @llvm.lifetime.end.p0(i64 8, ptr %12) #7
  call void @llvm.lifetime.end.p0(i64 8, ptr %11) #7
  call void @llvm.lifetime.end.p0(i64 8, ptr %10) #7
  call void @llvm.lifetime.end.p0(i64 64, ptr %9) #7
  %45 = load i32, ptr %13, align 4
  switch i32 %45, label %47 [
    i32 0, label %46
    i32 1, label %46
  ]

46:                                               ; preds = %44, %44
  ret void

47:                                               ; preds = %44
  unreachable
}