; Function Attrs: nounwind uwtable
define void @png_write_sCAL_s(ptr noalias noundef %0, i32 noundef %1, ptr noundef readonly captures(none) %2, ptr noundef readonly captures(none) %3) local_unnamed_addr #1 {
  %5 = alloca [64 x i8], align 16
  call void @llvm.lifetime.start.p0(i64 64, ptr nonnull %5) #12
  %6 = tail call i64 @strlen(ptr noundef nonnull dereferenceable(1) %2) #14
  %7 = tail call i64 @strlen(ptr noundef nonnull dereferenceable(1) %3) #14
  %8 = add i64 %6, 2
  %9 = add i64 %8, %7
  %10 = icmp ugt i64 %9, 64
  br i1 %10, label %11, label %12

11:                                               ; preds = %4
  tail call void @png_warning(ptr noundef %0, ptr noundef nonnull @.str.40) #12
  br label %18

12:                                               ; preds = %4
  %13 = trunc i32 %1 to i8
  store i8 %13, ptr %5, align 16, !tbaa !3
  %14 = getelementptr inbounds nuw i8, ptr %5, i64 1
  %15 = add i64 %6, 1
  call void @llvm.memcpy.p0.p0.i64(ptr nonnull align 1 %14, ptr nonnull align 1 %2, i64 %15, i1 false)
  %16 = getelementptr inbounds nuw i8, ptr %5, i64 %6
  %17 = getelementptr inbounds nuw i8, ptr %16, i64 2
  call void @llvm.memcpy.p0.p0.i64(ptr nonnull align 1 %17, ptr nonnull align 1 %3, i64 %7, i1 false)
  call fastcc void @png_write_complete_chunk(ptr noundef %0, i32 noundef 1933787468, ptr noundef nonnull %5, i64 noundef %9)
  br label %18

18:                                               ; preds = %12, %11
  call void @llvm.lifetime.end.p0(i64 64, ptr nonnull %5) #12
  ret void
}